; Function Attrs: nounwind uwtable
define dso_local void @ACLUpdateCommandRules(ptr noundef captures(none) %0, ptr noundef %1, i32 noundef %2) local_unnamed_addr #0 {
  %4 = tail call ptr @sdsnew(ptr noundef %1) #25
  tail call void @sdstolower(ptr noundef %4) #25
  tail call void @ACLSelectorRemoveCommandRule(ptr noundef %0, ptr noundef %4)
  %5 = getelementptr inbounds nuw i8, ptr %0, i64 160
  %6 = load ptr, ptr %5, align 8, !tbaa !67
  %7 = getelementptr inbounds i8, ptr %6, i64 -1
  %8 = load i8, ptr %7, align 1, !tbaa !19
  %9 = zext i8 %8 to i32
  %10 = and i32 %9, 7
  switch i32 %10, label %sdslen.exit.thread [
    i32 0, label %11
    i32 1, label %14
    i32 2, label %18
    i32 3, label %22
    i32 4, label %26
  ]

11:                                               ; preds = %3
  %12 = lshr i32 %9, 3
  %13 = zext nneg i32 %12 to i64
  br label %sdslen.exit

14:                                               ; preds = %3
  %15 = getelementptr inbounds i8, ptr %6, i64 -3
  %16 = load i8, ptr %15, align 1, !tbaa !19
  %17 = zext i8 %16 to i64
  br label %sdslen.exit

18:                                               ; preds = %3
  %19 = getelementptr inbounds i8, ptr %6, i64 -5
  %20 = load i16, ptr %19, align 1, !tbaa !26
  %21 = zext i16 %20 to i64
  br label %sdslen.exit

22:                                               ; preds = %3
  %23 = getelementptr inbounds i8, ptr %6, i64 -9
  %24 = load i32, ptr %23, align 1, !tbaa !102
  %25 = zext i32 %24 to i64
  br label %sdslen.exit

26:                                               ; preds = %3
  %27 = getelementptr inbounds i8, ptr %6, i64 -17
  %28 = load i64, ptr %27, align 1, !tbaa !5
  br label %sdslen.exit

sdslen.exit:                                      ; preds = %11, %14, %18, %22, %26
  %.0.i = phi i64 [ %28, %26 ], [ %25, %22 ], [ %21, %18 ], [ %17, %14 ], [ %13, %11 ]
  %.not = icmp eq i64 %.0.i, 0
  br i1 %.not, label %sdslen.exit.thread, label %29

29:                                               ; preds = %sdslen.exit
  %30 = tail call ptr @sdscat(ptr noundef nonnull %6, ptr noundef nonnull @.str.40) #25
  store ptr %30, ptr %5, align 8, !tbaa !67
  br label %sdslen.exit.thread

sdslen.exit.thread:                               ; preds = %3, %29, %sdslen.exit
  %31 = phi ptr [ %6, %3 ], [ %30, %29 ], [ %6, %sdslen.exit ]
  %.not11 = icmp eq i32 %2, 0
  %32 = select i1 %.not11, ptr @.str.42, ptr @.str.41
  %33 = tail call ptr (ptr, ptr, ...) @sdscatfmt(ptr noundef %31, ptr noundef nonnull %32, ptr noundef %4) #25
  store ptr %33, ptr %5, align 8, !tbaa !67
  tail call void @sdsfree(ptr noundef %4) #25
  ret void
}